; Function Attrs: mustprogress uwtable
define hidden void @_ZN16fpa2bv_converter15mk_to_ieee_bv_iEP9func_decljPKP4exprR7obj_refIS2_11ast_managerE(ptr noundef nonnull align 8 dereferenceable(496) %0, ptr noundef readonly captures(none) %1, i32 noundef %2, ptr noundef %3, ptr noundef nonnull align 8 dereferenceable(16) %4) local_unnamed_addr #3 align 2 personality ptr @__gxx_personality_v0 {
  %6 = alloca %class.obj_ref.75, align 8
  call void @llvm.lifetime.start.p0(i64 16, ptr nonnull %6) #23
  %7 = getelementptr inbounds nuw i8, ptr %0, i64 8
  %8 = load ptr, ptr %7, align 8, !tbaa !130
  %9 = getelementptr inbounds nuw i8, ptr %1, i64 24
  %10 = load ptr, ptr %9, align 8, !tbaa !157
  %11 = icmp eq ptr %10, null
  br i1 %11, label %_ZNK4decl13get_family_idEv.exit, label %12

12:                                               ; preds = %5
  %13 = load i32, ptr %10, align 8, !tbaa !159
  br label %_ZNK4decl13get_family_idEv.exit

_ZNK4decl13get_family_idEv.exit:                  ; preds = %5, %12
  %14 = phi i32 [ %13, %12 ], [ -1, %5 ]
  %15 = tail call noundef ptr @_ZN11ast_manager12mk_func_declEiijPK9parameterjPKP4exprP4sort(ptr noundef nonnull align 8 dereferenceable(976) %8, i32 noundef %14, i32 noundef 46, i32 noundef 0, ptr noundef null, i32 noundef %2, ptr noundef %3, ptr noundef null)
  %16 = load ptr, ptr %7, align 8, !tbaa !130
  store ptr %15, ptr %6, align 8, !tbaa !361
  %17 = getelementptr inbounds nuw i8, ptr %6, i64 8
  store ptr %16, ptr %17, align 8, !tbaa !6
  %.not.i.i = icmp eq ptr %15, null
  br i1 %.not.i.i, label %_ZN7obj_refI9func_decl11ast_managerEC2EPS0_RS1_.exit, label %_ZN11ast_manager7inc_refEP3ast.exit.i.i

_ZN11ast_manager7inc_refEP3ast.exit.i.i:          ; preds = %_ZNK4decl13get_family_idEv.exit
  %18 = getelementptr inbounds nuw i8, ptr %15, i64 8
  %19 = load i32, ptr %18, align 4, !tbaa !125
  %20 = add i32 %19, 1
  store i32 %20, ptr %18, align 4, !tbaa !125
  br label %_ZN7obj_refI9func_decl11ast_managerEC2EPS0_RS1_.exit

_ZN7obj_refI9func_decl11ast_managerEC2EPS0_RS1_.exit: ; preds = %_ZNK4decl13get_family_idEv.exit, %_ZN11ast_manager7inc_refEP3ast.exit.i.i
  invoke void @_ZN16fpa2bv_converter13mk_to_ieee_bvEP9func_decljPKP4exprR7obj_refIS2_11ast_managerE(ptr noundef nonnull align 8 dereferenceable(496) %0, ptr noundef %15, i32 noundef %2, ptr noundef %3, ptr noundef nonnull align 8 dereferenceable(16) %4)
          to label %21 unwind label %31

21:                                               ; preds = %_ZN7obj_refI9func_decl11ast_managerEC2EPS0_RS1_.exit
  br i1 %.not.i.i, label %_ZN7obj_refI9func_decl11ast_managerED2Ev.exit, label %22

22:                                               ; preds = %21
  %23 = getelementptr inbounds nuw i8, ptr %15, i64 8
  %24 = load i32, ptr %23, align 4, !tbaa !125
  %25 = add i32 %24, -1
  store i32 %25, ptr %23, align 4, !tbaa !125
  %26 = icmp eq i32 %25, 0
  br i1 %26, label %27, label %_ZN7obj_refI9func_decl11ast_managerED2Ev.exit

27:                                               ; preds = %22
  invoke void @_ZN11ast_manager11delete_nodeEP3ast(ptr noundef nonnull align 8 dereferenceable(976) %16, ptr noundef nonnull %15)
          to label %_ZN7obj_refI9func_decl11ast_managerED2Ev.exit unwind label %28

28:                                               ; preds = %27
  %29 = landingpad { ptr, i32 }
          catch ptr null
  %30 = extractvalue { ptr, i32 } %29, 0
  tail call void @__clang_call_terminate(ptr %30) #24
  unreachable

_ZN7obj_refI9func_decl11ast_managerED2Ev.exit:    ; preds = %21, %22, %27
  call void @llvm.lifetime.end.p0(i64 16, ptr nonnull %6) #23
  ret void

31:                                               ; preds = %_ZN7obj_refI9func_decl11ast_managerEC2EPS0_RS1_.exit
  %32 = landingpad { ptr, i32 }
          cleanup
  call void @_ZN7obj_refI9func_decl11ast_managerED2Ev(ptr noundef nonnull align 8 dereferenceable(16) %6) #23
  call void @llvm.lifetime.end.p0(i64 16, ptr nonnull %6) #23
  resume { ptr, i32 } %32
}